target datalayout = "e-m:e-p270:32:32-p271:32:32-p272:64:64-i64:64-i128:128-f80:128-n8:16:32:64-S128"
target triple = "x86_64-pc-linux-gnu"

%struct._mtp3_addr_pc_t = type { i32, i32, i8 }
%struct._address = type { i32, i32, ptr, ptr }

; Function Attrs: null_pointer_is_valid sspstrong uwtable
define internal ptr @mtp3_addr_name_res_str(ptr noundef %0) #0 {
  %2 = alloca ptr, align 8
  %3 = alloca ptr, align 8
  %4 = alloca ptr, align 8
  %5 = alloca ptr, align 8
  %6 = alloca ptr, align 8
  %7 = alloca i32, align 4
  store ptr %0, ptr %3, align 8
  call void @llvm.lifetime.start.p0(i64 8, ptr %4) #11
  %8 = load ptr, ptr %3, align 8
  %9 = getelementptr inbounds nuw %struct._address, ptr %8, i32 0, i32 2
  %10 = load ptr, ptr %9, align 8
  store ptr %10, ptr %4, align 8
  call void @llvm.lifetime.start.p0(i64 8, ptr %5) #11
  %11 = load ptr, ptr %4, align 8
  %12 = getelementptr inbounds nuw %struct._mtp3_addr_pc_t, ptr %11, i32 0, i32 2
  %13 = load i8, ptr %12, align 4
  %14 = load ptr, ptr %4, align 8
  %15 = getelementptr inbounds nuw %struct._mtp3_addr_pc_t, ptr %14, i32 0, i32 1
  %16 = load i32, ptr %15, align 4
  %17 = call ptr @get_hostname_ss7pc(i8 noundef zeroext %13, i32 noundef %16)
  store ptr %17, ptr %5, align 8
  %18 = load ptr, ptr %5, align 8
  %19 = getelementptr i8, ptr %18, i64 0
  %20 = load i8, ptr %19, align 1
  %21 = sext i8 %20 to i32
  %22 = icmp eq i32 %21, 0
  br i1 %22, label %23, label %42

23:                                               ; preds = %1
  call void @llvm.lifetime.start.p0(i64 8, ptr %6) #11
  %24 = call noalias ptr @wmem_alloc(ptr noundef null, i64 noundef 64) #12
  store ptr %24, ptr %6, align 8
  %25 = load ptr, ptr %4, align 8
  %26 = load ptr, ptr %6, align 8
  call void @mtp3_addr_to_str_buf(ptr noundef %25, ptr noundef %26, i32 noundef 64)
  %27 = load ptr, ptr %6, align 8
  %28 = load ptr, ptr %4, align 8
  %29 = getelementptr inbounds nuw %struct._mtp3_addr_pc_t, ptr %28, i32 0, i32 2
  %30 = load i8, ptr %29, align 4
  %31 = load ptr, ptr %4, align 8
  %32 = getelementptr inbounds nuw %struct._mtp3_addr_pc_t, ptr %31, i32 0, i32 1
  %33 = load i32, ptr %32, align 4
  call void @fill_unresolved_ss7pc(ptr noundef %27, i8 noundef zeroext %30, i32 noundef %33)
  %34 = load ptr, ptr %6, align 8
  call void @wmem_free(ptr noundef null, ptr noundef %34)
  %35 = load ptr, ptr %4, align 8
  %36 = getelementptr inbounds nuw %struct._mtp3_addr_pc_t, ptr %35, i32 0, i32 2
  %37 = load i8, ptr %36, align 4
  %38 = load ptr, ptr %4, align 8
  %39 = getelementptr inbounds nuw %struct._mtp3_addr_pc_t, ptr %38, i32 0, i32 1
  %40 = load i32, ptr %39, align 4
  %41 = call ptr @get_hostname_ss7pc(i8 noundef zeroext %37, i32 noundef %40)
  store ptr %41, ptr %2, align 8
  store i32 1, ptr %7, align 4
  call void @llvm.lifetime.end.p0(i64 8, ptr %6) #11
  br label %44

42:                                               ; preds = %1
  %43 = load ptr, ptr %5, align 8
  store ptr %43, ptr %2, align 8
  store i32 1, ptr %7, align 4
  br label %44

44:                                               ; preds = %42, %23
  call void @llvm.lifetime.end.p0(i64 8, ptr %5) #11
  call void @llvm.lifetime.end.p0(i64 8, ptr %4) #11
  %45 = load ptr, ptr %2, align 8
  ret ptr %45
}