; Function Attrs: null_pointer_is_valid sspstrong uwtable
define internal ptr @mtp3_addr_name_res_str(ptr noundef readonly captures(none) %0) #0 {
  %2 = getelementptr inbounds nuw i8, ptr %0, i64 8
  %3 = load ptr, ptr %2, align 8
  %4 = getelementptr inbounds nuw i8, ptr %3, i64 8
  %5 = load i8, ptr %4, align 4
  %6 = getelementptr inbounds nuw i8, ptr %3, i64 4
  %7 = load i32, ptr %6, align 4
  %8 = tail call ptr @get_hostname_ss7pc(i8 noundef zeroext %5, i32 noundef %7)
  %9 = load i8, ptr %8, align 1
  %10 = icmp eq i8 %9, 0
  br i1 %10, label %11, label %18

11:                                               ; preds = %1
  %12 = tail call noalias dereferenceable_or_null(64) ptr @wmem_alloc(ptr noundef null, i64 noundef 64) #14
  tail call fastcc void @mtp3_addr_to_str_buf(ptr noundef %3, ptr noundef %12, i32 noundef 64)
  %13 = load i8, ptr %4, align 4
  %14 = load i32, ptr %6, align 4
  tail call void @fill_unresolved_ss7pc(ptr noundef %12, i8 noundef zeroext %13, i32 noundef %14)
  tail call void @wmem_free(ptr noundef null, ptr noundef %12)
  %15 = load i8, ptr %4, align 4
  %16 = load i32, ptr %6, align 4
  %17 = tail call ptr @get_hostname_ss7pc(i8 noundef zeroext %15, i32 noundef %16)
  br label %18

18:                                               ; preds = %1, %11
  %.0 = phi ptr [ %17, %11 ], [ %8, %1 ]
  ret ptr %.0
}